target datalayout = "e-m:e-p270:32:32-p271:32:32-p272:64:64-i64:64-i128:128-f80:128-n8:16:32:64-S128"
target triple = "x86_64-pc-linux-gnu"

%struct.tng_trajectory = type { ptr, ptr, i64, ptr, ptr, ptr, ptr, ptr, ptr, i8, i8, ptr, ptr, ptr, ptr, ptr, ptr, ptr, ptr, ptr, i64, i64, i8, i64, i64, i64, double, i64, ptr, ptr, i64, i64, i64, i64, i64, %struct.tng_trajectory_frame_set, i64, i64, i64, i32, ptr, i32, ptr, ptr, ptr, double }
%struct.tng_trajectory_frame_set = type { i64, ptr, i64, i64, i64, i64, ptr, i64, i64, i64, i64, i64, i64, i64, double, i32, ptr, i32, ptr }
%struct.tng_molecule = type { i64, i64, i64, i64, i64, i64, ptr, ptr, ptr, ptr, ptr }
%struct.tng_bond = type { i64, i64 }

@stderr = external global ptr, align 8
@.str = private unnamed_addr constant [45 x i8] c"TNG library: Cannot allocate memory. %s: %d\0A\00", align 1
@.str.1 = private unnamed_addr constant [130 x i8] c"generated/home/dtcxzyw/WorkSpace/Projects/compilers/llvm-opt-benchmark/bench/gromacs/gromacs/src/external/tng_io/src/lib/tng_io.c\00", align 1

; Function Attrs: nounwind uwtable
define i32 @tng_molecule_cnt_list_get(ptr noundef %0, ptr noundef %1) #0 {
  %3 = alloca i32, align 4
  %4 = alloca ptr, align 8
  %5 = alloca ptr, align 8
  store ptr %0, ptr %4, align 8, !tbaa !3
  store ptr %1, ptr %5, align 8, !tbaa !108
  %6 = load ptr, ptr %4, align 8, !tbaa !3
  %7 = getelementptr inbounds nuw %struct.tng_trajectory, ptr %6, i32 0, i32 22
  %8 = load i8, ptr %7, align 8, !tbaa !64
  %9 = icmp ne i8 %8, 0
  br i1 %9, label %10, label %16

10:                                               ; preds = %2
  %11 = load ptr, ptr %4, align 8, !tbaa !3
  %12 = getelementptr inbounds nuw %struct.tng_trajectory, ptr %11, i32 0, i32 35
  %13 = getelementptr inbounds nuw %struct.tng_trajectory_frame_set, ptr %12, i32 0, i32 6
  %14 = load ptr, ptr %13, align 8, !tbaa !66
  %15 = load ptr, ptr %5, align 8, !tbaa !108
  store ptr %14, ptr %15, align 8, !tbaa !47
  br label %21

16:                                               ; preds = %2
  %17 = load ptr, ptr %4, align 8, !tbaa !3
  %18 = getelementptr inbounds nuw %struct.tng_trajectory, ptr %17, i32 0, i32 29
  %19 = load ptr, ptr %18, align 8, !tbaa !46
  %20 = load ptr, ptr %5, align 8, !tbaa !108
  store ptr %19, ptr %20, align 8, !tbaa !47
  br label %21

21:                                               ; preds = %16, %10
  %22 = load ptr, ptr %5, align 8, !tbaa !108
  %23 = load ptr, ptr %22, align 8, !tbaa !47
  %24 = icmp eq ptr %23, null
  br i1 %24, label %25, label %26

25:                                               ; preds = %21
  store i32 1, ptr %3, align 4
  br label %27

26:                                               ; preds = %21
  store i32 0, ptr %3, align 4
  br label %27

27:                                               ; preds = %26, %25
  %28 = load i32, ptr %3, align 4
  ret i32 %28
}

; Function Attrs: nounwind uwtable
define i32 @tng_molsystem_bonds_get(ptr noundef %0, ptr noundef %1, ptr noundef %2, ptr noundef %3) #0 {
  %5 = alloca i32, align 4
  %6 = alloca ptr, align 8
  %7 = alloca ptr, align 8
  %8 = alloca ptr, align 8
  %9 = alloca ptr, align 8
  %10 = alloca i64, align 8
  %11 = alloca i64, align 8
  %12 = alloca i64, align 8
  %13 = alloca i64, align 8
  %14 = alloca i64, align 8
  %15 = alloca i64, align 8
  %16 = alloca i64, align 8
  %17 = alloca i64, align 8
  %18 = alloca ptr, align 8
  %19 = alloca ptr, align 8
  %20 = alloca ptr, align 8
  %21 = alloca i32, align 4
  store ptr %0, ptr %6, align 8, !tbaa !3
  store ptr %1, ptr %7, align 8, !tbaa !47
  store ptr %2, ptr %8, align 8, !tbaa !108
  store ptr %3, ptr %9, align 8, !tbaa !108
  call void @llvm.lifetime.start.p0(i64 8, ptr %10) #11
  store i64 0, ptr %10, align 8, !tbaa !26
  call void @llvm.lifetime.start.p0(i64 8, ptr %11) #11
  call void @llvm.lifetime.start.p0(i64 8, ptr %12) #11
  call void @llvm.lifetime.start.p0(i64 8, ptr %13) #11
  call void @llvm.lifetime.start.p0(i64 8, ptr %14) #11
  call void @llvm.lifetime.start.p0(i64 8, ptr %15) #11
  call void @llvm.lifetime.start.p0(i64 8, ptr %16) #11
  call void @llvm.lifetime.start.p0(i64 8, ptr %17) #11
  call void @llvm.lifetime.start.p0(i64 8, ptr %18) #11
  store ptr null, ptr %18, align 8, !tbaa !47
  call void @llvm.lifetime.start.p0(i64 8, ptr %19) #11
  call void @llvm.lifetime.start.p0(i64 8, ptr %20) #11
  %22 = load ptr, ptr %6, align 8, !tbaa !3
  %23 = call i32 @tng_molecule_cnt_list_get(ptr noundef %22, ptr noundef %18)
  %24 = load ptr, ptr %18, align 8, !tbaa !47
  %25 = icmp ne ptr %24, null
  br i1 %25, label %27, label %26

26:                                               ; preds = %4
  store i32 1, ptr %5, align 4
  store i32 1, ptr %21, align 4
  br label %160

27:                                               ; preds = %4
  %28 = load ptr, ptr %7, align 8, !tbaa !47
  store i64 0, ptr %28, align 8, !tbaa !26
  store i64 0, ptr %13, align 8, !tbaa !26
  br label %29

29:                                               ; preds = %53, %27
  %30 = load i64, ptr %13, align 8, !tbaa !26
  %31 = load ptr, ptr %6, align 8, !tbaa !3
  %32 = getelementptr inbounds nuw %struct.tng_trajectory, ptr %31, i32 0, i32 27
  %33 = load i64, ptr %32, align 8, !tbaa !32
  %34 = icmp slt i64 %30, %33
  br i1 %34, label %35, label %56

35:                                               ; preds = %29
  %36 = load ptr, ptr %6, align 8, !tbaa !3
  %37 = getelementptr inbounds nuw %struct.tng_trajectory, ptr %36, i32 0, i32 28
  %38 = load ptr, ptr %37, align 8, !tbaa !40
  %39 = load i64, ptr %13, align 8, !tbaa !26
  %40 = getelementptr inbounds %struct.tng_molecule, ptr %38, i64 %39
  store ptr %40, ptr %19, align 8, !tbaa !45
  %41 = load ptr, ptr %18, align 8, !tbaa !47
  %42 = load i64, ptr %13, align 8, !tbaa !26
  %43 = getelementptr inbounds i64, ptr %41, i64 %42
  %44 = load i64, ptr %43, align 8, !tbaa !26
  store i64 %44, ptr %12, align 8, !tbaa !26
  %45 = load i64, ptr %12, align 8, !tbaa !26
  %46 = load ptr, ptr %19, align 8, !tbaa !45
  %47 = getelementptr inbounds nuw %struct.tng_molecule, ptr %46, i32 0, i32 5
  %48 = load i64, ptr %47, align 8, !tbaa !56
  %49 = mul nsw i64 %45, %48
  %50 = load ptr, ptr %7, align 8, !tbaa !47
  %51 = load i64, ptr %50, align 8, !tbaa !26
  %52 = add nsw i64 %51, %49
  store i64 %52, ptr %50, align 8, !tbaa !26
  br label %53

53:                                               ; preds = %35
  %54 = load i64, ptr %13, align 8, !tbaa !26
  %55 = add nsw i64 %54, 1
  store i64 %55, ptr %13, align 8, !tbaa !26
  br label %29, !llvm.loop !111

56:                                               ; preds = %29
  %57 = load ptr, ptr %7, align 8, !tbaa !47
  %58 = load i64, ptr %57, align 8, !tbaa !26
  %59 = icmp eq i64 %58, 0
  br i1 %59, label %60, label %61

60:                                               ; preds = %56
  store i32 0, ptr %5, align 4
  store i32 1, ptr %21, align 4
  br label %160

61:                                               ; preds = %56
  %62 = load ptr, ptr %7, align 8, !tbaa !47
  %63 = load i64, ptr %62, align 8, !tbaa !26
  %64 = mul i64 8, %63
  %65 = call noalias ptr @malloc(i64 noundef %64) #13
  %66 = load ptr, ptr %8, align 8, !tbaa !108
  store ptr %65, ptr %66, align 8, !tbaa !47
  %67 = load ptr, ptr %8, align 8, !tbaa !108
  %68 = load ptr, ptr %67, align 8, !tbaa !47
  %69 = icmp ne ptr %68, null
  br i1 %69, label %73, label %70

70:                                               ; preds = %61
  %71 = load ptr, ptr @stderr, align 8, !tbaa !24
  %72 = call i32 (ptr, ptr, ...) @fprintf(ptr noundef %71, ptr noundef @.str, ptr noundef @.str.1, i32 noundef 7790) #11
  store i32 2, ptr %5, align 4
  store i32 1, ptr %21, align 4
  br label %160

73:                                               ; preds = %61
  %74 = load ptr, ptr %7, align 8, !tbaa !47
  %75 = load i64, ptr %74, align 8, !tbaa !26
  %76 = mul i64 8, %75
  %77 = call noalias ptr @malloc(i64 noundef %76) #13
  %78 = load ptr, ptr %9, align 8, !tbaa !108
  store ptr %77, ptr %78, align 8, !tbaa !47
  %79 = load ptr, ptr %9, align 8, !tbaa !108
  %80 = load ptr, ptr %79, align 8, !tbaa !47
  %81 = icmp ne ptr %80, null
  br i1 %81, label %88, label %82

82:                                               ; preds = %73
  %83 = load ptr, ptr @stderr, align 8, !tbaa !24
  %84 = call i32 (ptr, ptr, ...) @fprintf(ptr noundef %83, ptr noundef @.str, ptr noundef @.str.1, i32 noundef 7796) #11
  %85 = load ptr, ptr %8, align 8, !tbaa !108
  %86 = load ptr, ptr %85, align 8, !tbaa !47
  call void @free(ptr noundef %86) #11
  %87 = load ptr, ptr %8, align 8, !tbaa !108
  store ptr null, ptr %87, align 8, !tbaa !47
  store i32 2, ptr %5, align 4
  store i32 1, ptr %21, align 4
  br label %160

88:                                               ; preds = %73
  store i64 0, ptr %11, align 8, !tbaa !26
  store i64 0, ptr %13, align 8, !tbaa !26
  br label %89

89:                                               ; preds = %156, %88
  %90 = load i64, ptr %13, align 8, !tbaa !26
  %91 = load ptr, ptr %6, align 8, !tbaa !3
  %92 = getelementptr inbounds nuw %struct.tng_trajectory, ptr %91, i32 0, i32 27
  %93 = load i64, ptr %92, align 8, !tbaa !32
  %94 = icmp slt i64 %90, %93
  br i1 %94, label %95, label %159

95:                                               ; preds = %89
  %96 = load ptr, ptr %6, align 8, !tbaa !3
  %97 = getelementptr inbounds nuw %struct.tng_trajectory, ptr %96, i32 0, i32 28
  %98 = load ptr, ptr %97, align 8, !tbaa !40
  %99 = load i64, ptr %13, align 8, !tbaa !26
  %100 = getelementptr inbounds %struct.tng_molecule, ptr %98, i64 %99
  store ptr %100, ptr %19, align 8, !tbaa !45
  %101 = load ptr, ptr %18, align 8, !tbaa !47
  %102 = load i64, ptr %13, align 8, !tbaa !26
  %103 = getelementptr inbounds i64, ptr %101, i64 %102
  %104 = load i64, ptr %103, align 8, !tbaa !26
  store i64 %104, ptr %12, align 8, !tbaa !26
  store i64 0, ptr %14, align 8, !tbaa !26
  br label %105

105:                                              ; preds = %152, %95
  %106 = load i64, ptr %14, align 8, !tbaa !26
  %107 = load i64, ptr %12, align 8, !tbaa !26
  %108 = icmp slt i64 %106, %107
  br i1 %108, label %109, label %155

109:                                              ; preds = %105
  store i64 0, ptr %15, align 8, !tbaa !26
  br label %110

110:                                              ; preds = %143, %109
  %111 = load i64, ptr %15, align 8, !tbaa !26
  %112 = load ptr, ptr %19, align 8, !tbaa !45
  %113 = getelementptr inbounds nuw %struct.tng_molecule, ptr %112, i32 0, i32 5
  %114 = load i64, ptr %113, align 8, !tbaa !56
  %115 = icmp slt i64 %111, %114
  br i1 %115, label %116, label %146

116:                                              ; preds = %110
  %117 = load ptr, ptr %19, align 8, !tbaa !45
  %118 = getelementptr inbounds nuw %struct.tng_molecule, ptr %117, i32 0, i32 10
  %119 = load ptr, ptr %118, align 8, !tbaa !57
  %120 = load i64, ptr %15, align 8, !tbaa !26
  %121 = getelementptr inbounds %struct.tng_bond, ptr %119, i64 %120
  store ptr %121, ptr %20, align 8, !tbaa !60
  %122 = load i64, ptr %10, align 8, !tbaa !26
  %123 = load ptr, ptr %20, align 8, !tbaa !60
  %124 = getelementptr inbounds nuw %struct.tng_bond, ptr %123, i32 0, i32 0
  %125 = load i64, ptr %124, align 8, !tbaa !99
  %126 = add nsw i64 %122, %125
  store i64 %126, ptr %16, align 8, !tbaa !26
  %127 = load i64, ptr %10, align 8, !tbaa !26
  %128 = load ptr, ptr %20, align 8, !tbaa !60
  %129 = getelementptr inbounds nuw %struct.tng_bond, ptr %128, i32 0, i32 1
  %130 = load i64, ptr %129, align 8, !tbaa !101
  %131 = add nsw i64 %127, %130
  store i64 %131, ptr %17, align 8, !tbaa !26
  %132 = load i64, ptr %16, align 8, !tbaa !26
  %133 = load ptr, ptr %8, align 8, !tbaa !108
  %134 = load ptr, ptr %133, align 8, !tbaa !47
  %135 = load i64, ptr %11, align 8, !tbaa !26
  %136 = getelementptr inbounds i64, ptr %134, i64 %135
  store i64 %132, ptr %136, align 8, !tbaa !26
  %137 = load i64, ptr %17, align 8, !tbaa !26
  %138 = load ptr, ptr %9, align 8, !tbaa !108
  %139 = load ptr, ptr %138, align 8, !tbaa !47
  %140 = load i64, ptr %11, align 8, !tbaa !26
  %141 = add nsw i64 %140, 1
  store i64 %141, ptr %11, align 8, !tbaa !26
  %142 = getelementptr inbounds i64, ptr %139, i64 %140
  store i64 %137, ptr %142, align 8, !tbaa !26
  br label %143

143:                                              ; preds = %116
  %144 = load i64, ptr %15, align 8, !tbaa !26
  %145 = add nsw i64 %144, 1
  store i64 %145, ptr %15, align 8, !tbaa !26
  br label %110, !llvm.loop !112

146:                                              ; preds = %110
  %147 = load ptr, ptr %19, align 8, !tbaa !45
  %148 = getelementptr inbounds nuw %struct.tng_molecule, ptr %147, i32 0, i32 4
  %149 = load i64, ptr %148, align 8, !tbaa !54
  %150 = load i64, ptr %10, align 8, !tbaa !26
  %151 = add nsw i64 %150, %149
  store i64 %151, ptr %10, align 8, !tbaa !26
  br label %152

152:                                              ; preds = %146
  %153 = load i64, ptr %14, align 8, !tbaa !26
  %154 = add nsw i64 %153, 1
  store i64 %154, ptr %14, align 8, !tbaa !26
  br label %105, !llvm.loop !113

155:                                              ; preds = %105
  br label %156

156:                                              ; preds = %155
  %157 = load i64, ptr %13, align 8, !tbaa !26
  %158 = add nsw i64 %157, 1
  store i64 %158, ptr %13, align 8, !tbaa !26
  br label %89, !llvm.loop !114

159:                                              ; preds = %89
  store i32 0, ptr %5, align 4
  store i32 1, ptr %21, align 4
  br label %160

160:                                              ; preds = %159, %82, %70, %60, %26
  call void @llvm.lifetime.end.p0(i64 8, ptr %20) #11
  call void @llvm.lifetime.end.p0(i64 8, ptr %19) #11
  call void @llvm.lifetime.end.p0(i64 8, ptr %18) #11
  call void @llvm.lifetime.end.p0(i64 8, ptr %17) #11
  call void @llvm.lifetime.end.p0(i64 8, ptr %16) #11
  call void @llvm.lifetime.end.p0(i64 8, ptr %15) #11
  call void @llvm.lifetime.end.p0(i64 8, ptr %14) #11
  call void @llvm.lifetime.end.p0(i64 8, ptr %13) #11
  call void @llvm.lifetime.end.p0(i64 8, ptr %12) #11
  call void @llvm.lifetime.end.p0(i64 8, ptr %11) #11
  call void @llvm.lifetime.end.p0(i64 8, ptr %10) #11
  %161 = load i32, ptr %5, align 4
  ret i32 %161
}