; Function Attrs: nounwind uwtable
define range(i32 0, 3) i32 @tng_molsystem_bonds_get(ptr noundef readonly captures(none) %0, ptr noundef writeonly captures(none) %1, ptr noundef captures(none) %2, ptr noundef writeonly captures(none) %3) local_unnamed_addr #4 {
  %5 = getelementptr inbounds nuw i8, ptr %0, i64 168
  %6 = load i8, ptr %5, align 8, !tbaa !47
  %.not.i = icmp eq i8 %6, 0
  %storemerge.in.v.i = select i1 %.not.i, i64 224, i64 320
  %storemerge.in.i = getelementptr inbounds nuw i8, ptr %0, i64 %storemerge.in.v.i
  %storemerge.i = load ptr, ptr %storemerge.in.i, align 8, !tbaa !92
  %7 = icmp eq ptr %storemerge.i, null
  br i1 %7, label %.loopexit, label %8

8:                                                ; preds = %4
  store i64 0, ptr %1, align 8, !tbaa !38
  %9 = getelementptr inbounds nuw i8, ptr %0, i64 208
  %10 = load i64, ptr %9, align 8, !tbaa !19
  %11 = icmp sgt i64 %10, 0
  br i1 %11, label %.lr.ph, label %.loopexit

.lr.ph:                                           ; preds = %8
  %12 = getelementptr inbounds nuw i8, ptr %0, i64 216
  %13 = load ptr, ptr %12, align 8, !tbaa !28
  br label %14

14:                                               ; preds = %.lr.ph, %14
  %15 = phi i64 [ 0, %.lr.ph ], [ %21, %14 ]
  %.05159 = phi i64 [ 0, %.lr.ph ], [ %22, %14 ]
  %16 = getelementptr inbounds nuw i64, ptr %storemerge.i, i64 %.05159
  %17 = load i64, ptr %16, align 8, !tbaa !38
  %18 = getelementptr inbounds nuw %struct.tng_molecule, ptr %13, i64 %.05159, i32 5
  %19 = load i64, ptr %18, align 8, !tbaa !71
  %20 = mul nsw i64 %19, %17
  %21 = add nsw i64 %15, %20
  store i64 %21, ptr %1, align 8, !tbaa !38
  %22 = add nuw nsw i64 %.05159, 1
  %23 = load i64, ptr %9, align 8, !tbaa !19
  %24 = icmp slt i64 %22, %23
  br i1 %24, label %14, label %._crit_edge, !llvm.loop !95

._crit_edge:                                      ; preds = %14
  %25 = icmp eq i64 %21, 0
  br i1 %25, label %.loopexit, label %26

26:                                               ; preds = %._crit_edge
  %27 = shl i64 %21, 3
  %28 = tail call noalias ptr @malloc(i64 noundef %27) #28
  store ptr %28, ptr %2, align 8, !tbaa !92
  %.not54 = icmp eq ptr %28, null
  br i1 %.not54, label %29, label %32

29:                                               ; preds = %26
  %30 = load ptr, ptr @stderr, align 8, !tbaa !14
  %31 = tail call i32 (ptr, ptr, ...) @fprintf(ptr noundef %30, ptr noundef nonnull @.str, ptr noundef nonnull @.str.1, i32 noundef 7790) #29
  br label %.loopexit

32:                                               ; preds = %26
  %33 = tail call noalias ptr @malloc(i64 noundef %27) #28
  store ptr %33, ptr %3, align 8, !tbaa !92
  %.not55 = icmp eq ptr %33, null
  br i1 %.not55, label %37, label %.preheader58

.preheader58:                                     ; preds = %32
  %34 = icmp sgt i64 %23, 0
  br i1 %34, label %.lr.ph74, label %.loopexit

.lr.ph74:                                         ; preds = %.preheader58
  %35 = getelementptr inbounds nuw i8, ptr %0, i64 216
  %36 = load ptr, ptr %35, align 8, !tbaa !28
  br label %41

37:                                               ; preds = %32
  %38 = load ptr, ptr @stderr, align 8, !tbaa !14
  %39 = tail call i32 (ptr, ptr, ...) @fprintf(ptr noundef %38, ptr noundef nonnull @.str, ptr noundef nonnull @.str.1, i32 noundef 7796) #29
  %40 = load ptr, ptr %2, align 8, !tbaa !92
  tail call void @free(ptr noundef %40) #26
  store ptr null, ptr %2, align 8, !tbaa !92
  br label %.loopexit

41:                                               ; preds = %.lr.ph74, %._crit_edge67
  %42 = phi i64 [ %23, %.lr.ph74 ], [ %76, %._crit_edge67 ]
  %.04673 = phi i64 [ 0, %.lr.ph74 ], [ %.1.lcssa, %._crit_edge67 ]
  %.04772 = phi i64 [ 0, %.lr.ph74 ], [ %.148.lcssa, %._crit_edge67 ]
  %.15271 = phi i64 [ 0, %.lr.ph74 ], [ %77, %._crit_edge67 ]
  %43 = getelementptr inbounds nuw i64, ptr %storemerge.i, i64 %.15271
  %44 = load i64, ptr %43, align 8, !tbaa !38
  %45 = icmp sgt i64 %44, 0
  br i1 %45, label %.preheader.lr.ph, label %._crit_edge67

.preheader.lr.ph:                                 ; preds = %41
  %46 = getelementptr inbounds nuw %struct.tng_molecule, ptr %36, i64 %.15271
  %47 = getelementptr inbounds nuw i8, ptr %46, i64 40
  %48 = getelementptr inbounds nuw i8, ptr %46, i64 80
  %49 = getelementptr inbounds nuw i8, ptr %46, i64 32
  %50 = load i64, ptr %47, align 8, !tbaa !71
  %51 = icmp sgt i64 %50, 0
  br i1 %51, label %.preheader, label %.preheader.lr.ph.split.us

.preheader.lr.ph.split.us:                        ; preds = %.preheader.lr.ph
  %52 = load i64, ptr %49, align 8, !tbaa !48
  %53 = mul i64 %52, %44
  %54 = add i64 %.04673, %53
  br label %._crit_edge67

.preheader:                                       ; preds = %.preheader.lr.ph, %._crit_edge63
  %55 = phi i64 [ %72, %._crit_edge63 ], [ %50, %.preheader.lr.ph ]
  %.166 = phi i64 [ %74, %._crit_edge63 ], [ %.04673, %.preheader.lr.ph ]
  %.14865 = phi i64 [ %.2.lcssa, %._crit_edge63 ], [ %.04772, %.preheader.lr.ph ]
  %.05064 = phi i64 [ %75, %._crit_edge63 ], [ 0, %.preheader.lr.ph ]
  %56 = icmp sgt i64 %55, 0
  br i1 %56, label %.lr.ph62, label %._crit_edge63

.lr.ph62:                                         ; preds = %.preheader
  %57 = load ptr, ptr %48, align 8, !tbaa !72
  %58 = load ptr, ptr %2, align 8, !tbaa !92
  br label %59

59:                                               ; preds = %.lr.ph62, %59
  %.261 = phi i64 [ %.14865, %.lr.ph62 ], [ %67, %59 ]
  %.04960 = phi i64 [ 0, %.lr.ph62 ], [ %69, %59 ]
  %60 = getelementptr inbounds nuw %struct.tng_bond, ptr %57, i64 %.04960
  %61 = load i64, ptr %60, align 8, !tbaa !87
  %62 = add nsw i64 %61, %.166
  %63 = getelementptr inbounds nuw i8, ptr %60, i64 8
  %64 = load i64, ptr %63, align 8, !tbaa !89
  %65 = add nsw i64 %64, %.166
  %66 = getelementptr inbounds i64, ptr %58, i64 %.261
  store i64 %62, ptr %66, align 8, !tbaa !38
  %67 = add nsw i64 %.261, 1
  %68 = getelementptr inbounds i64, ptr %33, i64 %.261
  store i64 %65, ptr %68, align 8, !tbaa !38
  %69 = add nuw nsw i64 %.04960, 1
  %70 = load i64, ptr %47, align 8, !tbaa !71
  %71 = icmp slt i64 %69, %70
  br i1 %71, label %59, label %._crit_edge63, !llvm.loop !96

._crit_edge63:                                    ; preds = %59, %.preheader
  %72 = phi i64 [ %55, %.preheader ], [ %70, %59 ]
  %.2.lcssa = phi i64 [ %.14865, %.preheader ], [ %67, %59 ]
  %73 = load i64, ptr %49, align 8, !tbaa !48
  %74 = add nsw i64 %73, %.166
  %75 = add nuw nsw i64 %.05064, 1
  %exitcond.not = icmp eq i64 %75, %44
  br i1 %exitcond.not, label %._crit_edge67.loopexit, label %.preheader, !llvm.loop !97

._crit_edge67.loopexit:                           ; preds = %._crit_edge63
  %.pre = load i64, ptr %9, align 8, !tbaa !19
  br label %._crit_edge67

._crit_edge67:                                    ; preds = %.preheader.lr.ph.split.us, %._crit_edge67.loopexit, %41
  %76 = phi i64 [ %42, %41 ], [ %.pre, %._crit_edge67.loopexit ], [ %42, %.preheader.lr.ph.split.us ]
  %.148.lcssa = phi i64 [ %.04772, %41 ], [ %.2.lcssa, %._crit_edge67.loopexit ], [ %.04772, %.preheader.lr.ph.split.us ]
  %.1.lcssa = phi i64 [ %.04673, %41 ], [ %74, %._crit_edge67.loopexit ], [ %54, %.preheader.lr.ph.split.us ]
  %77 = add nuw nsw i64 %.15271, 1
  %78 = icmp slt i64 %77, %76
  br i1 %78, label %41, label %.loopexit, !llvm.loop !99

.loopexit:                                        ; preds = %._crit_edge67, %8, %.preheader58, %._crit_edge, %4, %37, %29
  %.0 = phi i32 [ 2, %37 ], [ 2, %29 ], [ 1, %4 ], [ 0, %._crit_edge ], [ 0, %.preheader58 ], [ 0, %8 ], [ 0, %._crit_edge67 ]
  ret i32 %.0
}